
A3uGlitcher.elf:     file format elf32-avr

Sections:
Idx Name          Size      VMA       LMA       File off  Algn
  0 .text         000003dc  00000000  00000000  00000074  2**1
                  CONTENTS, ALLOC, LOAD, READONLY, CODE
  1 .data         00000022  00802000  000003dc  00000450  2**0
                  CONTENTS, ALLOC, LOAD, DATA
  2 .comment      00000030  00000000  00000000  00000472  2**0
                  CONTENTS, READONLY
  3 .note.gnu.avr.deviceinfo 00000040  00000000  00000000  000004a4  2**2
                  CONTENTS, READONLY
  4 .debug_aranges 00000078  00000000  00000000  000004e4  2**0
                  CONTENTS, READONLY, DEBUGGING
  5 .debug_info   00003b46  00000000  00000000  0000055c  2**0
                  CONTENTS, READONLY, DEBUGGING
  6 .debug_abbrev 00003388  00000000  00000000  000040a2  2**0
                  CONTENTS, READONLY, DEBUGGING
  7 .debug_line   00000833  00000000  00000000  0000742a  2**0
                  CONTENTS, READONLY, DEBUGGING
  8 .debug_frame  000000e8  00000000  00000000  00007c60  2**2
                  CONTENTS, READONLY, DEBUGGING
  9 .debug_str    0000279a  00000000  00000000  00007d48  2**0
                  CONTENTS, READONLY, DEBUGGING
 10 .debug_loc    000001be  00000000  00000000  0000a4e2  2**0
                  CONTENTS, READONLY, DEBUGGING
 11 .debug_ranges 00000068  00000000  00000000  0000a6a0  2**0
                  CONTENTS, READONLY, DEBUGGING

Disassembly of section .text:

00000000 <__vectors>:
   0:	0c 94 fe 00 	jmp	0x1fc	; 0x1fc <__ctors_end>
   4:	0c 94 17 01 	jmp	0x22e	; 0x22e <__bad_interrupt>
   8:	0c 94 17 01 	jmp	0x22e	; 0x22e <__bad_interrupt>
   c:	0c 94 17 01 	jmp	0x22e	; 0x22e <__bad_interrupt>
  10:	0c 94 17 01 	jmp	0x22e	; 0x22e <__bad_interrupt>
  14:	0c 94 17 01 	jmp	0x22e	; 0x22e <__bad_interrupt>
  18:	0c 94 17 01 	jmp	0x22e	; 0x22e <__bad_interrupt>
  1c:	0c 94 17 01 	jmp	0x22e	; 0x22e <__bad_interrupt>
  20:	0c 94 17 01 	jmp	0x22e	; 0x22e <__bad_interrupt>
  24:	0c 94 17 01 	jmp	0x22e	; 0x22e <__bad_interrupt>
  28:	0c 94 17 01 	jmp	0x22e	; 0x22e <__bad_interrupt>
  2c:	0c 94 17 01 	jmp	0x22e	; 0x22e <__bad_interrupt>
  30:	0c 94 17 01 	jmp	0x22e	; 0x22e <__bad_interrupt>
  34:	0c 94 17 01 	jmp	0x22e	; 0x22e <__bad_interrupt>
  38:	0c 94 17 01 	jmp	0x22e	; 0x22e <__bad_interrupt>
  3c:	0c 94 17 01 	jmp	0x22e	; 0x22e <__bad_interrupt>
  40:	0c 94 17 01 	jmp	0x22e	; 0x22e <__bad_interrupt>
  44:	0c 94 17 01 	jmp	0x22e	; 0x22e <__bad_interrupt>
  48:	0c 94 17 01 	jmp	0x22e	; 0x22e <__bad_interrupt>
  4c:	0c 94 17 01 	jmp	0x22e	; 0x22e <__bad_interrupt>
  50:	0c 94 17 01 	jmp	0x22e	; 0x22e <__bad_interrupt>
  54:	0c 94 17 01 	jmp	0x22e	; 0x22e <__bad_interrupt>
  58:	0c 94 17 01 	jmp	0x22e	; 0x22e <__bad_interrupt>
  5c:	0c 94 17 01 	jmp	0x22e	; 0x22e <__bad_interrupt>
  60:	0c 94 17 01 	jmp	0x22e	; 0x22e <__bad_interrupt>
  64:	0c 94 17 01 	jmp	0x22e	; 0x22e <__bad_interrupt>
  68:	0c 94 17 01 	jmp	0x22e	; 0x22e <__bad_interrupt>
  6c:	0c 94 17 01 	jmp	0x22e	; 0x22e <__bad_interrupt>
  70:	0c 94 17 01 	jmp	0x22e	; 0x22e <__bad_interrupt>
  74:	0c 94 17 01 	jmp	0x22e	; 0x22e <__bad_interrupt>
  78:	0c 94 17 01 	jmp	0x22e	; 0x22e <__bad_interrupt>
  7c:	0c 94 17 01 	jmp	0x22e	; 0x22e <__bad_interrupt>
  80:	0c 94 17 01 	jmp	0x22e	; 0x22e <__bad_interrupt>
  84:	0c 94 17 01 	jmp	0x22e	; 0x22e <__bad_interrupt>
  88:	0c 94 17 01 	jmp	0x22e	; 0x22e <__bad_interrupt>
  8c:	0c 94 17 01 	jmp	0x22e	; 0x22e <__bad_interrupt>
  90:	0c 94 17 01 	jmp	0x22e	; 0x22e <__bad_interrupt>
  94:	0c 94 17 01 	jmp	0x22e	; 0x22e <__bad_interrupt>
  98:	0c 94 17 01 	jmp	0x22e	; 0x22e <__bad_interrupt>
  9c:	0c 94 17 01 	jmp	0x22e	; 0x22e <__bad_interrupt>
  a0:	0c 94 17 01 	jmp	0x22e	; 0x22e <__bad_interrupt>
  a4:	0c 94 17 01 	jmp	0x22e	; 0x22e <__bad_interrupt>
  a8:	0c 94 17 01 	jmp	0x22e	; 0x22e <__bad_interrupt>
  ac:	0c 94 17 01 	jmp	0x22e	; 0x22e <__bad_interrupt>
  b0:	0c 94 17 01 	jmp	0x22e	; 0x22e <__bad_interrupt>
  b4:	0c 94 17 01 	jmp	0x22e	; 0x22e <__bad_interrupt>
  b8:	0c 94 17 01 	jmp	0x22e	; 0x22e <__bad_interrupt>
  bc:	0c 94 17 01 	jmp	0x22e	; 0x22e <__bad_interrupt>
  c0:	0c 94 17 01 	jmp	0x22e	; 0x22e <__bad_interrupt>
  c4:	0c 94 17 01 	jmp	0x22e	; 0x22e <__bad_interrupt>
  c8:	0c 94 17 01 	jmp	0x22e	; 0x22e <__bad_interrupt>
  cc:	0c 94 17 01 	jmp	0x22e	; 0x22e <__bad_interrupt>
  d0:	0c 94 17 01 	jmp	0x22e	; 0x22e <__bad_interrupt>
  d4:	0c 94 17 01 	jmp	0x22e	; 0x22e <__bad_interrupt>
  d8:	0c 94 17 01 	jmp	0x22e	; 0x22e <__bad_interrupt>
  dc:	0c 94 17 01 	jmp	0x22e	; 0x22e <__bad_interrupt>
  e0:	0c 94 17 01 	jmp	0x22e	; 0x22e <__bad_interrupt>
  e4:	0c 94 17 01 	jmp	0x22e	; 0x22e <__bad_interrupt>
  e8:	0c 94 17 01 	jmp	0x22e	; 0x22e <__bad_interrupt>
  ec:	0c 94 17 01 	jmp	0x22e	; 0x22e <__bad_interrupt>
  f0:	0c 94 17 01 	jmp	0x22e	; 0x22e <__bad_interrupt>
  f4:	0c 94 17 01 	jmp	0x22e	; 0x22e <__bad_interrupt>
  f8:	0c 94 17 01 	jmp	0x22e	; 0x22e <__bad_interrupt>
  fc:	0c 94 17 01 	jmp	0x22e	; 0x22e <__bad_interrupt>
 100:	0c 94 17 01 	jmp	0x22e	; 0x22e <__bad_interrupt>
 104:	0c 94 17 01 	jmp	0x22e	; 0x22e <__bad_interrupt>
 108:	0c 94 17 01 	jmp	0x22e	; 0x22e <__bad_interrupt>
 10c:	0c 94 17 01 	jmp	0x22e	; 0x22e <__bad_interrupt>
 110:	0c 94 17 01 	jmp	0x22e	; 0x22e <__bad_interrupt>
 114:	0c 94 17 01 	jmp	0x22e	; 0x22e <__bad_interrupt>
 118:	0c 94 17 01 	jmp	0x22e	; 0x22e <__bad_interrupt>
 11c:	0c 94 17 01 	jmp	0x22e	; 0x22e <__bad_interrupt>
 120:	0c 94 17 01 	jmp	0x22e	; 0x22e <__bad_interrupt>
 124:	0c 94 17 01 	jmp	0x22e	; 0x22e <__bad_interrupt>
 128:	0c 94 17 01 	jmp	0x22e	; 0x22e <__bad_interrupt>
 12c:	0c 94 17 01 	jmp	0x22e	; 0x22e <__bad_interrupt>
 130:	0c 94 17 01 	jmp	0x22e	; 0x22e <__bad_interrupt>
 134:	0c 94 17 01 	jmp	0x22e	; 0x22e <__bad_interrupt>
 138:	0c 94 17 01 	jmp	0x22e	; 0x22e <__bad_interrupt>
 13c:	0c 94 17 01 	jmp	0x22e	; 0x22e <__bad_interrupt>
 140:	0c 94 17 01 	jmp	0x22e	; 0x22e <__bad_interrupt>
 144:	0c 94 17 01 	jmp	0x22e	; 0x22e <__bad_interrupt>
 148:	0c 94 17 01 	jmp	0x22e	; 0x22e <__bad_interrupt>
 14c:	0c 94 17 01 	jmp	0x22e	; 0x22e <__bad_interrupt>
 150:	0c 94 17 01 	jmp	0x22e	; 0x22e <__bad_interrupt>
 154:	0c 94 17 01 	jmp	0x22e	; 0x22e <__bad_interrupt>
 158:	0c 94 17 01 	jmp	0x22e	; 0x22e <__bad_interrupt>
 15c:	0c 94 17 01 	jmp	0x22e	; 0x22e <__bad_interrupt>
 160:	0c 94 17 01 	jmp	0x22e	; 0x22e <__bad_interrupt>
 164:	0c 94 17 01 	jmp	0x22e	; 0x22e <__bad_interrupt>
 168:	0c 94 17 01 	jmp	0x22e	; 0x22e <__bad_interrupt>
 16c:	0c 94 17 01 	jmp	0x22e	; 0x22e <__bad_interrupt>
 170:	0c 94 17 01 	jmp	0x22e	; 0x22e <__bad_interrupt>
 174:	0c 94 17 01 	jmp	0x22e	; 0x22e <__bad_interrupt>
 178:	0c 94 17 01 	jmp	0x22e	; 0x22e <__bad_interrupt>
 17c:	0c 94 17 01 	jmp	0x22e	; 0x22e <__bad_interrupt>
 180:	0c 94 17 01 	jmp	0x22e	; 0x22e <__bad_interrupt>
 184:	0c 94 17 01 	jmp	0x22e	; 0x22e <__bad_interrupt>
 188:	0c 94 17 01 	jmp	0x22e	; 0x22e <__bad_interrupt>
 18c:	0c 94 17 01 	jmp	0x22e	; 0x22e <__bad_interrupt>
 190:	0c 94 17 01 	jmp	0x22e	; 0x22e <__bad_interrupt>
 194:	0c 94 17 01 	jmp	0x22e	; 0x22e <__bad_interrupt>
 198:	0c 94 17 01 	jmp	0x22e	; 0x22e <__bad_interrupt>
 19c:	0c 94 17 01 	jmp	0x22e	; 0x22e <__bad_interrupt>
 1a0:	0c 94 17 01 	jmp	0x22e	; 0x22e <__bad_interrupt>
 1a4:	0c 94 17 01 	jmp	0x22e	; 0x22e <__bad_interrupt>
 1a8:	0c 94 17 01 	jmp	0x22e	; 0x22e <__bad_interrupt>
 1ac:	0c 94 17 01 	jmp	0x22e	; 0x22e <__bad_interrupt>
 1b0:	0c 94 17 01 	jmp	0x22e	; 0x22e <__bad_interrupt>
 1b4:	0c 94 17 01 	jmp	0x22e	; 0x22e <__bad_interrupt>
 1b8:	0c 94 17 01 	jmp	0x22e	; 0x22e <__bad_interrupt>
 1bc:	0c 94 17 01 	jmp	0x22e	; 0x22e <__bad_interrupt>
 1c0:	0c 94 17 01 	jmp	0x22e	; 0x22e <__bad_interrupt>
 1c4:	0c 94 17 01 	jmp	0x22e	; 0x22e <__bad_interrupt>
 1c8:	0c 94 17 01 	jmp	0x22e	; 0x22e <__bad_interrupt>
 1cc:	0c 94 17 01 	jmp	0x22e	; 0x22e <__bad_interrupt>
 1d0:	0c 94 17 01 	jmp	0x22e	; 0x22e <__bad_interrupt>
 1d4:	0c 94 17 01 	jmp	0x22e	; 0x22e <__bad_interrupt>
 1d8:	0c 94 17 01 	jmp	0x22e	; 0x22e <__bad_interrupt>
 1dc:	0c 94 17 01 	jmp	0x22e	; 0x22e <__bad_interrupt>
 1e0:	0c 94 17 01 	jmp	0x22e	; 0x22e <__bad_interrupt>
 1e4:	0c 94 17 01 	jmp	0x22e	; 0x22e <__bad_interrupt>
 1e8:	0c 94 17 01 	jmp	0x22e	; 0x22e <__bad_interrupt>
 1ec:	0c 94 17 01 	jmp	0x22e	; 0x22e <__bad_interrupt>
 1f0:	0c 94 17 01 	jmp	0x22e	; 0x22e <__bad_interrupt>
 1f4:	0c 94 17 01 	jmp	0x22e	; 0x22e <__bad_interrupt>
 1f8:	0c 94 17 01 	jmp	0x22e	; 0x22e <__bad_interrupt>

000001fc <__ctors_end>:
 1fc:	11 24       	eor	r1, r1
 1fe:	1f be       	out	0x3f, r1	; 63
 200:	cf ef       	ldi	r28, 0xFF	; 255
 202:	cd bf       	out	0x3d, r28	; 61
 204:	df e3       	ldi	r29, 0x3F	; 63
 206:	de bf       	out	0x3e, r29	; 62
 208:	00 e0       	ldi	r16, 0x00	; 0
 20a:	0c bf       	out	0x3c, r16	; 60

0000020c <__do_copy_data>:
 20c:	10 e2       	ldi	r17, 0x20	; 32
 20e:	a0 e0       	ldi	r26, 0x00	; 0
 210:	b0 e2       	ldi	r27, 0x20	; 32
 212:	ec ed       	ldi	r30, 0xDC	; 220
 214:	f3 e0       	ldi	r31, 0x03	; 3
 216:	00 e0       	ldi	r16, 0x00	; 0
 218:	0b bf       	out	0x3b, r16	; 59
 21a:	02 c0       	rjmp	.+4      	; 0x220 <__do_copy_data+0x14>
 21c:	07 90       	elpm	r0, Z+
 21e:	0d 92       	st	X+, r0
 220:	a2 32       	cpi	r26, 0x22	; 34
 222:	b1 07       	cpc	r27, r17
 224:	d9 f7       	brne	.-10     	; 0x21c <__do_copy_data+0x10>
 226:	0e 94 e6 01 	call	0x3cc	; 0x3cc <main>
 22a:	0c 94 ec 01 	jmp	0x3d8	; 0x3d8 <_exit>

0000022e <__bad_interrupt>:
 22e:	0c 94 00 00 	jmp	0	; 0x0 <__vectors>

00000232 <serial_init>:
	MARKERPULSE();
	while (offset!=0) offset--;
	NOP();
	NOP();
	NOP();
	PULSE(PORTE, PIN0_bm);
 232:	e0 e4       	ldi	r30, 0x40	; 64
 234:	f6 e0       	ldi	r31, 0x06	; 6
 236:	88 e0       	ldi	r24, 0x08	; 8
 238:	85 83       	std	Z+5, r24	; 0x05
 23a:	81 83       	std	Z+1, r24	; 0x01
 23c:	84 e0       	ldi	r24, 0x04	; 4
 23e:	86 83       	std	Z+6, r24	; 0x06
 240:	82 83       	std	Z+2, r24	; 0x02
 242:	e0 ea       	ldi	r30, 0xA0	; 160
 244:	f8 e0       	ldi	r31, 0x08	; 8
 246:	84 83       	std	Z+4, r24	; 0x04
 248:	83 e0       	ldi	r24, 0x03	; 3
 24a:	85 83       	std	Z+5, r24	; 0x05
 24c:	17 82       	std	Z+7, r1	; 0x07
 24e:	83 e2       	ldi	r24, 0x23	; 35
 250:	86 83       	std	Z+6, r24	; 0x06
 252:	84 81       	ldd	r24, Z+4	; 0x04
 254:	88 61       	ori	r24, 0x18	; 24
 256:	84 83       	std	Z+4, r24	; 0x04
 258:	08 95       	ret

0000025a <usart_send_byte>:
 25a:	fc 01       	movw	r30, r24
 25c:	91 81       	ldd	r25, Z+1	; 0x01
 25e:	95 ff       	sbrs	r25, 5
 260:	fd cf       	rjmp	.-6      	; 0x25c <usart_send_byte+0x2>
 262:	60 83       	st	Z, r22
 264:	08 95       	ret

00000266 <serial_puts>:
 266:	cf 93       	push	r28
 268:	df 93       	push	r29
 26a:	fc 01       	movw	r30, r24
 26c:	60 81       	ld	r22, Z
 26e:	66 23       	and	r22, r22
 270:	49 f0       	breq	.+18     	; 0x284 <serial_puts+0x1e>
 272:	ec 01       	movw	r28, r24
 274:	21 96       	adiw	r28, 0x01	; 1
 276:	80 ea       	ldi	r24, 0xA0	; 160
 278:	98 e0       	ldi	r25, 0x08	; 8
 27a:	0e 94 2d 01 	call	0x25a	; 0x25a <usart_send_byte>
 27e:	69 91       	ld	r22, Y+
 280:	61 11       	cpse	r22, r1
 282:	f9 cf       	rjmp	.-14     	; 0x276 <serial_puts+0x10>
 284:	df 91       	pop	r29
 286:	cf 91       	pop	r28
 288:	08 95       	ret

0000028a <setup_clock>:
 28a:	e0 e5       	ldi	r30, 0x50	; 80
 28c:	f0 e0       	ldi	r31, 0x00	; 0
 28e:	80 81       	ld	r24, Z
 290:	82 60       	ori	r24, 0x02	; 2
 292:	80 83       	st	Z, r24
 294:	e1 e5       	ldi	r30, 0x51	; 81
 296:	f0 e0       	ldi	r31, 0x00	; 0
 298:	80 81       	ld	r24, Z
 29a:	81 ff       	sbrs	r24, 1
 29c:	fd cf       	rjmp	.-6      	; 0x298 <setup_clock+0xe>
 29e:	88 ed       	ldi	r24, 0xD8	; 216
 2a0:	84 bf       	out	0x34, r24	; 52
 2a2:	81 e0       	ldi	r24, 0x01	; 1
 2a4:	80 93 40 00 	sts	0x0040, r24	; 0x800040 <__TEXT_REGION_LENGTH__+0x700040>
 2a8:	e0 e5       	ldi	r30, 0x50	; 80
 2aa:	f0 e0       	ldi	r31, 0x00	; 0
 2ac:	80 81       	ld	r24, Z
 2ae:	8e 7f       	andi	r24, 0xFE	; 254
 2b0:	80 83       	st	Z, r24
 2b2:	08 95       	ret

000002b4 <glitchPlusZero>:
 2b4:	e8 e2       	ldi	r30, 0x28	; 40
 2b6:	f6 e0       	ldi	r31, 0x06	; 6
 2b8:	90 81       	ld	r25, Z
 2ba:	92 ff       	sbrs	r25, 2
 2bc:	fd cf       	rjmp	.-6      	; 0x2b8 <glitchPlusZero+0x4>
 2be:	90 81       	ld	r25, Z
 2c0:	91 ff       	sbrs	r25, 1
 2c2:	04 c0       	rjmp	.+8      	; 0x2cc <glitchPlusZero+0x18>
 2c4:	90 81       	ld	r25, Z
 2c6:	91 fd       	sbrc	r25, 1
 2c8:	fd cf       	rjmp	.-6      	; 0x2c4 <glitchPlusZero+0x10>
 2ca:	f6 cf       	rjmp	.-20     	; 0x2b8 <glitchPlusZero+0x4>
 2cc:	90 81       	ld	r25, Z
 2ce:	91 ff       	sbrs	r25, 1
 2d0:	fd cf       	rjmp	.-6      	; 0x2cc <glitchPlusZero+0x18>
 2d2:	90 81       	ld	r25, Z
 2d4:	92 ff       	sbrs	r25, 2
 2d6:	f0 cf       	rjmp	.-32     	; 0x2b8 <glitchPlusZero+0x4>
 2d8:	88 23       	and	r24, r24
 2da:	11 f0       	breq	.+4      	; 0x2e0 <glitchPlusZero+0x2c>
 2dc:	81 50       	subi	r24, 0x01	; 1
 2de:	f1 f7       	brne	.-4      	; 0x2dc <glitchPlusZero+0x28>
 2e0:	e0 e8       	ldi	r30, 0x80	; 128
 2e2:	f6 e0       	ldi	r31, 0x06	; 6
 2e4:	81 e0       	ldi	r24, 0x01	; 1
 2e6:	85 83       	std	Z+5, r24	; 0x05
 2e8:	00 00       	nop
 2ea:	00 00       	nop
 2ec:	86 83       	std	Z+6, r24	; 0x06
 2ee:	08 95       	ret

000002f0 <glitchPlusOne>:
 2f0:	e8 e2       	ldi	r30, 0x28	; 40
 2f2:	f6 e0       	ldi	r31, 0x06	; 6
 2f4:	90 81       	ld	r25, Z
 2f6:	92 ff       	sbrs	r25, 2
 2f8:	fd cf       	rjmp	.-6      	; 0x2f4 <glitchPlusOne+0x4>
 2fa:	90 81       	ld	r25, Z
 2fc:	91 ff       	sbrs	r25, 1
 2fe:	04 c0       	rjmp	.+8      	; 0x308 <glitchPlusOne+0x18>
 300:	90 81       	ld	r25, Z
 302:	91 fd       	sbrc	r25, 1
 304:	fd cf       	rjmp	.-6      	; 0x300 <glitchPlusOne+0x10>
 306:	f6 cf       	rjmp	.-20     	; 0x2f4 <glitchPlusOne+0x4>
 308:	90 81       	ld	r25, Z
 30a:	91 ff       	sbrs	r25, 1
 30c:	fd cf       	rjmp	.-6      	; 0x308 <glitchPlusOne+0x18>
 30e:	90 81       	ld	r25, Z
 310:	92 ff       	sbrs	r25, 2
 312:	f0 cf       	rjmp	.-32     	; 0x2f4 <glitchPlusOne+0x4>
 314:	88 23       	and	r24, r24
 316:	11 f0       	breq	.+4      	; 0x31c <glitchPlusOne+0x2c>
 318:	81 50       	subi	r24, 0x01	; 1
 31a:	f1 f7       	brne	.-4      	; 0x318 <glitchPlusOne+0x28>
 31c:	00 00       	nop
 31e:	e0 e8       	ldi	r30, 0x80	; 128
 320:	f6 e0       	ldi	r31, 0x06	; 6
 322:	81 e0       	ldi	r24, 0x01	; 1
 324:	85 83       	std	Z+5, r24	; 0x05
 326:	00 00       	nop
 328:	00 00       	nop
 32a:	86 83       	std	Z+6, r24	; 0x06
 32c:	08 95       	ret

0000032e <glitch>:
}

void glitch(uint8_t offset) {
	switch (offset%OffsetLoopCost) {
 32e:	9b ea       	ldi	r25, 0xAB	; 171
 330:	89 9f       	mul	r24, r25
 332:	91 2d       	mov	r25, r1
 334:	11 24       	eor	r1, r1
 336:	96 95       	lsr	r25
 338:	29 2f       	mov	r18, r25
 33a:	22 0f       	add	r18, r18
 33c:	92 0f       	add	r25, r18
 33e:	28 2f       	mov	r18, r24
 340:	29 1b       	sub	r18, r25
 342:	21 30       	cpi	r18, 0x01	; 1
 344:	71 f0       	breq	.+28     	; 0x362 <glitch+0x34>
 346:	28 f0       	brcs	.+10     	; 0x352 <glitch+0x24>
 348:	22 30       	cpi	r18, 0x02	; 2
 34a:	99 f0       	breq	.+38     	; 0x372 <glitch+0x44>
 34c:	23 30       	cpi	r18, 0x03	; 3
 34e:	c9 f0       	breq	.+50     	; 0x382 <glitch+0x54>
 350:	08 95       	ret
		case 0: glitchPlusZero(offset/OffsetLoopCost); break;
 352:	9b ea       	ldi	r25, 0xAB	; 171
 354:	89 9f       	mul	r24, r25
 356:	81 2d       	mov	r24, r1
 358:	11 24       	eor	r1, r1
 35a:	86 95       	lsr	r24
 35c:	0e 94 5a 01 	call	0x2b4	; 0x2b4 <glitchPlusZero>
 360:	08 95       	ret
		case 1: glitchPlusOne(offset/OffsetLoopCost); break;
 362:	9b ea       	ldi	r25, 0xAB	; 171
 364:	89 9f       	mul	r24, r25
 366:	81 2d       	mov	r24, r1
 368:	11 24       	eor	r1, r1
 36a:	86 95       	lsr	r24
 36c:	0e 94 78 01 	call	0x2f0	; 0x2f0 <glitchPlusOne>
 370:	08 95       	ret
		case 2: glitchPlusZero(offset/OffsetLoopCost); break;
 372:	9b ea       	ldi	r25, 0xAB	; 171
 374:	89 9f       	mul	r24, r25
 376:	81 2d       	mov	r24, r1
 378:	11 24       	eor	r1, r1
 37a:	86 95       	lsr	r24
 37c:	0e 94 5a 01 	call	0x2b4	; 0x2b4 <glitchPlusZero>
 380:	08 95       	ret
		case 3: glitchPlusOne(offset/OffsetLoopCost); break;
 382:	9b ea       	ldi	r25, 0xAB	; 171
 384:	89 9f       	mul	r24, r25
 386:	81 2d       	mov	r24, r1
 388:	11 24       	eor	r1, r1
 38a:	86 95       	lsr	r24
 38c:	0e 94 78 01 	call	0x2f0	; 0x2f0 <glitchPlusOne>
 390:	08 95       	ret

00000392 <glitchExplorer>:

void glitchExplorer(void) {
	uint8_t offset;
	uint8_t o;
	
	PORTB.DIRCLR = PIN1_bm | PIN2_bm; // only pins B0, B1 to input, rest left out
 392:	86 e0       	ldi	r24, 0x06	; 6
 394:	80 93 22 06 	sts	0x0622, r24	; 0x800622 <__TEXT_REGION_LENGTH__+0x700622>

	PORTE.OUTCLR = PIN0_bm;
 398:	e0 e8       	ldi	r30, 0x80	; 128
 39a:	f6 e0       	ldi	r31, 0x06	; 6
 39c:	81 e0       	ldi	r24, 0x01	; 1
 39e:	86 83       	std	Z+6, r24	; 0x06
	PORTE.DIRSET = PIN0_bm; // set pin E0 to output
 3a0:	81 83       	std	Z+1, r24	; 0x01
			
	serial_puts("I'm waiting on you\n");
 3a2:	80 e0       	ldi	r24, 0x00	; 0
 3a4:	90 e2       	ldi	r25, 0x20	; 32
 3a6:	0e 94 33 01 	call	0x266	; 0x266 <serial_puts>
			offset = ConfiguredOffset + ConfiguredDelta * (o/2);
			} else {
			offset = ConfiguredOffset - ConfiguredDelta * (o/2);
		}
		if (offset < 1) continue;
		glitch(offset);
 3aa:	80 e3       	ldi	r24, 0x30	; 48
 3ac:	0e 94 97 01 	call	0x32e	; 0x32e <glitch>
		serial_puts("glitch sent\n");
 3b0:	84 e1       	ldi	r24, 0x14	; 20
 3b2:	90 e2       	ldi	r25, 0x20	; 32
 3b4:	0e 94 33 01 	call	0x266	; 0x266 <serial_puts>
	#else
		//round up by default
		__ticks_dc = (uint32_t)(ceil(fabs(__tmp)));
	#endif

	__builtin_avr_delay_cycles(__ticks_dc);
 3b8:	2f e7       	ldi	r18, 0x7F	; 127
 3ba:	88 ec       	ldi	r24, 0xC8	; 200
 3bc:	96 e6       	ldi	r25, 0x66	; 102
 3be:	21 50       	subi	r18, 0x01	; 1
 3c0:	80 40       	sbci	r24, 0x00	; 0
 3c2:	90 40       	sbci	r25, 0x00	; 0
 3c4:	e1 f7       	brne	.-8      	; 0x3be <glitchExplorer+0x2c>
 3c6:	00 c0       	rjmp	.+0      	; 0x3c8 <glitchExplorer+0x36>
 3c8:	00 00       	nop
 3ca:	ef cf       	rjmp	.-34     	; 0x3aa <glitchExplorer+0x18>

000003cc <main>:
		_delay_ms(1000);
	}
}

int main(void) {
	setup_clock();
 3cc:	0e 94 45 01 	call	0x28a	; 0x28a <setup_clock>
	serial_init();
 3d0:	0e 94 19 01 	call	0x232	; 0x232 <serial_init>
	if (ConfiguredOffset<=0 || ConfiguredDelta<0) {
		serial_puts("Invalid parameters!\n");
		while(1);
	}
	
	glitchExplorer();
 3d4:	0e 94 c9 01 	call	0x392	; 0x392 <glitchExplorer>

000003d8 <_exit>:
 3d8:	f8 94       	cli

000003da <__stop_program>:
 3da:	ff cf       	rjmp	.-2      	; 0x3da <__stop_program>
